target datalayout = "e-m:e-p270:32:32-p271:32:32-p272:64:64-i64:64-i128:128-f80:128-n8:16:32:64-S128"
target triple = "x86_64-pc-linux-gnu"

%struct._GtkTreeIter = type { i32, ptr, ptr, ptr }
%struct._GdkEventKey = type { i32, ptr, i8, i32, i32, i32, i32, ptr, i16, i8, i8 }

; Function Attrs: nounwind uwtable
define internal i32 @tree_key_press_presets(ptr noundef %0, ptr noundef %1, ptr noundef %2) #0 {
  %4 = alloca i32, align 4
  %5 = alloca ptr, align 8
  %6 = alloca ptr, align 8
  %7 = alloca ptr, align 8
  %8 = alloca ptr, align 8
  %9 = alloca %struct._GtkTreeIter, align 8
  %10 = alloca ptr, align 8
  %11 = alloca i32, align 4
  %12 = alloca i32, align 4
  %13 = alloca ptr, align 8
  %14 = alloca ptr, align 8
  %15 = alloca ptr, align 8
  store ptr %0, ptr %5, align 8, !tbaa !6
  store ptr %1, ptr %6, align 8, !tbaa !158
  store ptr %2, ptr %7, align 8, !tbaa !61
  call void @llvm.lifetime.start.p0(i64 8, ptr %8) #10
  %16 = load ptr, ptr %7, align 8, !tbaa !61
  store ptr %16, ptr %8, align 8, !tbaa !146
  call void @llvm.lifetime.start.p0(i64 32, ptr %9) #10
  call void @llvm.lifetime.start.p0(i64 8, ptr %10) #10
  %17 = load ptr, ptr %5, align 8, !tbaa !6
  %18 = call i64 @gtk_tree_view_get_type() #11
  %19 = call ptr @g_type_check_instance_cast(ptr noundef %17, i64 noundef %18)
  %20 = call ptr @gtk_tree_view_get_selection(ptr noundef %19)
  store ptr %20, ptr %10, align 8, !tbaa !160
  %21 = load ptr, ptr %6, align 8, !tbaa !158
  %22 = getelementptr inbounds nuw %struct._GdkEventKey, ptr %21, i32 0, i32 10
  %23 = load i8, ptr %22, align 1
  %24 = and i8 %23, 1
  %25 = zext i8 %24 to i32
  %26 = icmp ne i32 %25, 0
  br i1 %26, label %27, label %28

27:                                               ; preds = %3
  store i32 0, ptr %4, align 4
  store i32 1, ptr %11, align 4
  br label %66

28:                                               ; preds = %3
  %29 = load ptr, ptr %6, align 8, !tbaa !158
  %30 = getelementptr inbounds nuw %struct._GdkEventKey, ptr %29, i32 0, i32 5
  %31 = load i32, ptr %30, align 4, !tbaa !162
  %32 = icmp eq i32 %31, 65535
  br i1 %32, label %38, label %33

33:                                               ; preds = %28
  %34 = load ptr, ptr %6, align 8, !tbaa !158
  %35 = getelementptr inbounds nuw %struct._GdkEventKey, ptr %34, i32 0, i32 5
  %36 = load i32, ptr %35, align 4, !tbaa !162
  %37 = icmp eq i32 %36, 65288
  br i1 %37, label %38, label %65

38:                                               ; preds = %33, %28
  %39 = load ptr, ptr %10, align 8, !tbaa !160
  %40 = call i32 @gtk_tree_selection_get_selected(ptr noundef %39, ptr noundef %8, ptr noundef %9)
  %41 = icmp ne i32 %40, 0
  br i1 %41, label %42, label %46

42:                                               ; preds = %38
  %43 = load ptr, ptr %8, align 8, !tbaa !146
  %44 = call i32 @gtk_tree_model_iter_has_child(ptr noundef %43, ptr noundef %9)
  %45 = icmp ne i32 %44, 0
  br i1 %45, label %46, label %47

46:                                               ; preds = %42, %38
  store i32 0, ptr %4, align 4
  store i32 1, ptr %11, align 4
  br label %66

47:                                               ; preds = %42
  call void @llvm.lifetime.start.p0(i64 4, ptr %12) #10
  call void @llvm.lifetime.start.p0(i64 8, ptr %13) #10
  call void @llvm.lifetime.start.p0(i64 8, ptr %14) #10
  call void @llvm.lifetime.start.p0(i64 8, ptr %15) #10
  %48 = load ptr, ptr %8, align 8, !tbaa !146
  call void (ptr, ptr, ...) @gtk_tree_model_get(ptr noundef %48, ptr noundef %9, i32 noundef 0, ptr noundef %12, i32 noundef 4, ptr noundef %13, i32 noundef 2, ptr noundef %14, i32 noundef 3, ptr noundef %15, i32 noundef -1)
  %49 = load ptr, ptr %15, align 8, !tbaa !144
  %50 = icmp eq ptr %49, null
  br i1 %50, label %51, label %60

51:                                               ; preds = %47
  %52 = load ptr, ptr %13, align 8, !tbaa !73
  %53 = load ptr, ptr %14, align 8, !tbaa !73
  %54 = load i32, ptr %12, align 4, !tbaa !57
  %55 = call i32 @dt_gui_presets_confirm_and_delete(ptr noundef %52, ptr noundef %53, i32 noundef %54)
  %56 = icmp ne i32 %55, 0
  br i1 %56, label %57, label %59

57:                                               ; preds = %51
  %58 = load ptr, ptr %8, align 8, !tbaa !146
  call void @_delete_line_and_empty_parent(ptr noundef %58, ptr noundef %9)
  br label %59

59:                                               ; preds = %57, %51
  br label %62

60:                                               ; preds = %47
  %61 = load ptr, ptr %15, align 8, !tbaa !144
  call void @g_object_unref(ptr noundef %61)
  br label %62

62:                                               ; preds = %60, %59
  %63 = load ptr, ptr %13, align 8, !tbaa !73
  call void @g_free(ptr noundef %63)
  %64 = load ptr, ptr %14, align 8, !tbaa !73
  call void @g_free(ptr noundef %64)
  store i32 1, ptr %4, align 4
  store i32 1, ptr %11, align 4
  call void @llvm.lifetime.end.p0(i64 8, ptr %15) #10
  call void @llvm.lifetime.end.p0(i64 8, ptr %14) #10
  call void @llvm.lifetime.end.p0(i64 8, ptr %13) #10
  call void @llvm.lifetime.end.p0(i64 4, ptr %12) #10
  br label %66

65:                                               ; preds = %33
  store i32 0, ptr %4, align 4
  store i32 1, ptr %11, align 4
  br label %66

66:                                               ; preds = %65, %62, %46, %27
  call void @llvm.lifetime.end.p0(i64 8, ptr %10) #10
  call void @llvm.lifetime.end.p0(i64 32, ptr %9) #10
  call void @llvm.lifetime.end.p0(i64 8, ptr %8) #10
  %67 = load i32, ptr %4, align 4
  ret i32 %67
}