; Function Attrs: nounwind uwtable
define internal range(i32 0, 2) i32 @tree_key_press_presets(ptr noundef %0, ptr noundef readonly captures(none) %1, ptr noundef %2) #0 {
  %4 = alloca ptr, align 8
  %5 = alloca %struct._GtkTreeIter, align 8
  %6 = alloca i32, align 4
  %7 = alloca ptr, align 8
  %8 = alloca ptr, align 8
  %9 = alloca ptr, align 8
  call void @llvm.lifetime.start.p0(i64 8, ptr nonnull %4) #12
  store ptr %2, ptr %4, align 8, !tbaa !106
  call void @llvm.lifetime.start.p0(i64 32, ptr nonnull %5) #12
  %10 = tail call i64 @gtk_tree_view_get_type() #13
  %11 = tail call ptr @g_type_check_instance_cast(ptr noundef %0, i64 noundef %10) #12
  %12 = tail call ptr @gtk_tree_view_get_selection(ptr noundef %11) #12
  %13 = getelementptr inbounds nuw i8, ptr %1, i64 51
  %14 = load i8, ptr %13, align 1
  %15 = and i8 %14, 1
  %.not = icmp eq i8 %15, 0
  br i1 %.not, label %16, label %39

16:                                               ; preds = %3
  %17 = getelementptr inbounds nuw i8, ptr %1, i64 28
  %18 = load i32, ptr %17, align 4, !tbaa !108
  switch i32 %18, label %39 [
    i32 65535, label %19
    i32 65288, label %19
  ]

19:                                               ; preds = %16, %16
  %20 = call i32 @gtk_tree_selection_get_selected(ptr noundef %12, ptr noundef nonnull %4, ptr noundef nonnull %5) #12
  %.not8 = icmp eq i32 %20, 0
  br i1 %.not8, label %39, label %21

21:                                               ; preds = %19
  %22 = load ptr, ptr %4, align 8, !tbaa !106
  %23 = call i32 @gtk_tree_model_iter_has_child(ptr noundef %22, ptr noundef nonnull %5) #12
  %.not9 = icmp eq i32 %23, 0
  br i1 %.not9, label %24, label %39

24:                                               ; preds = %21
  call void @llvm.lifetime.start.p0(i64 4, ptr nonnull %6) #12
  call void @llvm.lifetime.start.p0(i64 8, ptr nonnull %7) #12
  call void @llvm.lifetime.start.p0(i64 8, ptr nonnull %8) #12
  call void @llvm.lifetime.start.p0(i64 8, ptr nonnull %9) #12
  %25 = load ptr, ptr %4, align 8, !tbaa !106
  call void (ptr, ptr, ...) @gtk_tree_model_get(ptr noundef %25, ptr noundef nonnull %5, i32 noundef 0, ptr noundef nonnull %6, i32 noundef 4, ptr noundef nonnull %7, i32 noundef 2, ptr noundef nonnull %8, i32 noundef 3, ptr noundef nonnull %9, i32 noundef -1) #12
  %26 = load ptr, ptr %9, align 8, !tbaa !104
  %27 = icmp eq ptr %26, null
  br i1 %27, label %28, label %35

28:                                               ; preds = %24
  %29 = load ptr, ptr %7, align 8, !tbaa !75
  %30 = load ptr, ptr %8, align 8, !tbaa !75
  %31 = load i32, ptr %6, align 4, !tbaa !62
  %32 = call i32 @dt_gui_presets_confirm_and_delete(ptr noundef %29, ptr noundef %30, i32 noundef %31) #12
  %.not10 = icmp eq i32 %32, 0
  br i1 %.not10, label %36, label %33

33:                                               ; preds = %28
  %34 = load ptr, ptr %4, align 8, !tbaa !106
  call fastcc void @_delete_line_and_empty_parent(ptr noundef %34, ptr noundef nonnull %5)
  br label %36

35:                                               ; preds = %24
  call void @g_object_unref(ptr noundef nonnull %26) #12
  br label %36

36:                                               ; preds = %28, %33, %35
  %37 = load ptr, ptr %7, align 8, !tbaa !75
  call void @g_free(ptr noundef %37) #12
  %38 = load ptr, ptr %8, align 8, !tbaa !75
  call void @g_free(ptr noundef %38) #12
  call void @llvm.lifetime.end.p0(i64 8, ptr nonnull %9) #12
  call void @llvm.lifetime.end.p0(i64 8, ptr nonnull %8) #12
  call void @llvm.lifetime.end.p0(i64 8, ptr nonnull %7) #12
  call void @llvm.lifetime.end.p0(i64 4, ptr nonnull %6) #12
  br label %39

39:                                               ; preds = %16, %19, %21, %3, %36
  %.0 = phi i32 [ 1, %36 ], [ 0, %3 ], [ 0, %21 ], [ 0, %19 ], [ 0, %16 ]
  call void @llvm.lifetime.end.p0(i64 32, ptr nonnull %5) #12
  call void @llvm.lifetime.end.p0(i64 8, ptr nonnull %4) #12
  ret i32 %.0
}